; Function Attrs: mustprogress nofree nounwind willreturn memory(write, argmem: none, inaccessiblemem: readwrite) uwtable
define noalias noundef ptr @Fraig_NodeVecAlloc(i32 noundef %0) local_unnamed_addr #0 {
  %2 = tail call noalias dereferenceable_or_null(16) ptr @malloc(i64 noundef 16) #17
  %3 = add i32 %0, -1
  %or.cond = icmp ult i32 %3, 7
  %spec.store.select = select i1 %or.cond, i32 8, i32 %0
  %4 = getelementptr inbounds nuw i8, ptr %2, i64 4
  store i32 0, ptr %4, align 4, !tbaa !3
  store i32 %spec.store.select, ptr %2, align 8, !tbaa !10
  %.not = icmp eq i32 %spec.store.select, 0
  br i1 %.not, label %9, label %5

5:                                                ; preds = %1
  %6 = sext i32 %spec.store.select to i64
  %7 = shl nsw i64 %6, 3
  %8 = tail call noalias ptr @malloc(i64 noundef %7) #17
  br label %9

9:                                                ; preds = %1, %5
  %10 = phi ptr [ %8, %5 ], [ null, %1 ]
  %11 = getelementptr inbounds nuw i8, ptr %2, i64 8
  store ptr %10, ptr %11, align 8, !tbaa !11
  ret ptr %2
}